target datalayout = "e-m:e-p270:32:32-p271:32:32-p272:64:64-i64:64-i128:128-f80:128-n8:16:32:64-S128"
target triple = "x86_64-pc-linux-gnu"

%class.quantifier_hoister = type { ptr }

; Function Attrs: mustprogress uwtable
define linkonce_odr hidden void @_ZN18quantifier_hoister4impl11pull_existsEP4exprR10ref_vectorI3app11ast_managerER7obj_refIS1_S5_Ebb(ptr noundef nonnull align 8 dereferenceable(80) %0, ptr noundef %1, ptr noundef nonnull align 8 dereferenceable(16) %2, ptr noundef nonnull align 8 dereferenceable(16) %3, i1 noundef zeroext %4, i1 noundef zeroext %5) #4 comdat align 2 {
  %7 = alloca ptr, align 8
  %8 = alloca ptr, align 8
  %9 = alloca ptr, align 8
  %10 = alloca ptr, align 8
  %11 = alloca i8, align 1
  %12 = alloca i8, align 1
  %13 = alloca i32, align 4
  store ptr %0, ptr %7, align 8, !tbaa !13
  store ptr %1, ptr %8, align 8, !tbaa !14
  store ptr %2, ptr %9, align 8, !tbaa !16
  store ptr %3, ptr %10, align 8, !tbaa !20
  %14 = zext i1 %4 to i8
  store i8 %14, ptr %11, align 1, !tbaa !22
  %15 = zext i1 %5 to i8
  store i8 %15, ptr %12, align 1, !tbaa !22
  %16 = load ptr, ptr %7, align 8
  call void @llvm.lifetime.start.p0(i64 4, ptr %13) #3
  store i32 32, ptr %13, align 4, !tbaa !26
  %17 = load ptr, ptr %8, align 8, !tbaa !14
  %18 = load ptr, ptr %9, align 8, !tbaa !16
  %19 = load ptr, ptr %10, align 8, !tbaa !20
  %20 = load i8, ptr %11, align 1, !tbaa !22, !range !24, !noundef !25
  %21 = trunc i8 %20 to i1
  %22 = load i8, ptr %12, align 1, !tbaa !22, !range !24, !noundef !25
  %23 = trunc i8 %22 to i1
  call void @_ZN18quantifier_hoister4impl15pull_quantifierEP4exprRNS0_15quantifier_typeER10ref_vectorI3app11ast_managerER7obj_refIS1_S7_Ebb(ptr noundef nonnull align 8 dereferenceable(80) %16, ptr noundef %17, ptr noundef nonnull align 4 dereferenceable(4) %13, ptr noundef nonnull align 8 dereferenceable(16) %18, ptr noundef nonnull align 8 dereferenceable(16) %19, i1 noundef zeroext %21, i1 noundef zeroext %23)
  call void @llvm.lifetime.end.p0(i64 4, ptr %13) #3
  ret void
}

; Function Attrs: mustprogress uwtable
define hidden void @_ZN18quantifier_hoister11pull_existsEP4exprR10ref_vectorI3app11ast_managerER7obj_refIS0_S4_Ebb(ptr noundef nonnull align 8 dereferenceable(8) %0, ptr noundef %1, ptr noundef nonnull align 8 dereferenceable(16) %2, ptr noundef nonnull align 8 dereferenceable(16) %3, i1 noundef zeroext %4, i1 noundef zeroext %5) #4 align 2 {
  %7 = alloca ptr, align 8
  %8 = alloca ptr, align 8
  %9 = alloca ptr, align 8
  %10 = alloca ptr, align 8
  %11 = alloca i8, align 1
  %12 = alloca i8, align 1
  store ptr %0, ptr %7, align 8, !tbaa !3
  store ptr %1, ptr %8, align 8, !tbaa !14
  store ptr %2, ptr %9, align 8, !tbaa !16
  store ptr %3, ptr %10, align 8, !tbaa !20
  %13 = zext i1 %4 to i8
  store i8 %13, ptr %11, align 1, !tbaa !22
  %14 = zext i1 %5 to i8
  store i8 %14, ptr %12, align 1, !tbaa !22
  %15 = load ptr, ptr %7, align 8
  %16 = getelementptr inbounds nuw %class.quantifier_hoister, ptr %15, i32 0, i32 0
  %17 = load ptr, ptr %16, align 8, !tbaa !10
  %18 = load ptr, ptr %8, align 8, !tbaa !14
  %19 = load ptr, ptr %9, align 8, !tbaa !16
  %20 = load ptr, ptr %10, align 8, !tbaa !20
  %21 = load i8, ptr %11, align 1, !tbaa !22, !range !24, !noundef !25
  %22 = trunc i8 %21 to i1
  %23 = load i8, ptr %12, align 1, !tbaa !22, !range !24, !noundef !25
  %24 = trunc i8 %23 to i1
  call void @_ZN18quantifier_hoister4impl11pull_existsEP4exprR10ref_vectorI3app11ast_managerER7obj_refIS1_S5_Ebb(ptr noundef nonnull align 8 dereferenceable(80) %17, ptr noundef %18, ptr noundef nonnull align 8 dereferenceable(16) %19, ptr noundef nonnull align 8 dereferenceable(16) %20, i1 noundef zeroext %22, i1 noundef zeroext %24)
  ret void
}