; Function Attrs: mustprogress uwtable
define hidden void @_ZN18quantifier_hoister11pull_existsEP4exprR10ref_vectorI3app11ast_managerER7obj_refIS0_S4_Ebb(ptr noundef nonnull readonly align 8 captures(none) dereferenceable(8) %0, ptr noundef %1, ptr noundef nonnull align 8 dereferenceable(16) %2, ptr noundef nonnull align 8 dereferenceable(16) %3, i1 noundef zeroext %4, i1 noundef zeroext %5) local_unnamed_addr #3 align 2 {
  %7 = alloca i32, align 4
  %8 = load ptr, ptr %0, align 8, !tbaa !3
  call void @llvm.lifetime.start.p0(i64 4, ptr nonnull %7) #18
  store i32 32, ptr %7, align 4, !tbaa !27
  call void @_ZN18quantifier_hoister4impl15pull_quantifierEP4exprRNS0_15quantifier_typeER10ref_vectorI3app11ast_managerER7obj_refIS1_S7_Ebb(ptr noundef nonnull align 8 dereferenceable(80) %8, ptr noundef %1, ptr noundef nonnull align 4 dereferenceable(4) %7, ptr noundef nonnull align 8 dereferenceable(16) %2, ptr noundef nonnull align 8 dereferenceable(16) %3, i1 noundef zeroext %4, i1 noundef zeroext %5)
  call void @llvm.lifetime.end.p0(i64 4, ptr nonnull %7) #18
  ret void
}